(dp0
S'Wetboek van Strafvordering'
p1
S'\tSv'
p2
sS'Wet algemene bepalingen'
p3
S'\tWab'
p4
sS'Penitentiaire maatregel'
p5
S'\tPm'
p6
sS'Faillissementswet'
p7
S'\tFw'
p8
sS'Beginselenwet justitiele jeugdinrichting'
p9
S'\tBjj'
p10
sS'Wet gemeenschappelijke regelingen'
p11
S'\tWgr'
p12
sS'Ambtsinstructie commissaris van de Konin'
p13
S' AcvdK'
p14
sS'Wet op de rechterlijke organisatie'
p15
S'\tWet RO'
p16
sS'Kaderwet zelfstandige bestuursorganen'
p17
S'\tKzb'
p18
sS'Wet op de Raad van State'
p19
S'\tWet RvS'
p20
sS'Auteurswet'
p21
S'\tAw'
p22
sS'Kadasterwet'
p23
S'\tKw'
p24
sS'Algemene wet op het binnentreden'
p25
S'Awohb'
p26
sS'Wet openbare manifestaties'
p27
S'\tWEU'
p28
sS'Algemene wet gelijke behandeling'
p29
S'\tAWGB'
p30
sS'Advocatenwet'
p31
S'\tAWGB'
p32
sS'Opiumwet'
p33
S'\tOw'
p34
sS'Grondwet'
p35
S'\tGw'
p36
sS'Woningwet'
p37
S'\tWw'
p38
sS'Kieswet'
p39
S'\tKw'
p40
sS'Wetboek van Burgerlijke Rechtsvordering'
p41
S'\tRv'
p42
sS'Invorderingswet 1990'
p43
S'\tIW 1990'
p44
sS'Facultatief Protocol bij het Verdrag inz'
p45
S'FPVI'
p46
sS'Provinciewet'
p47
S'\tPw'
p48
sS'Vreemdelingenwet 2000'
p49
S'\tVw 2000'
p50
sS'Waterschapswet'
p51
S'\tWw'
p52
sS'Wet op de ondernemingsraden'
p53
S'\tWOR'
p54
sS'Gemeentewet'
p55
S'\tGw'
p56
sS'Europees Verdrag ter voorkoming van folt'
p57
S'EVVF'
p58
sS'Beginselenwet verpleging ter beschikking'
p59
S'\tBvb'
p60
sS'Wet bescherming persoonsgegevens'
p61
S'\tWbp'
p62
sS'Penitentiaire beginselenwet'
p63
S'\tPb'
p64
sS'Bekendmakingswet'
p65
S'\tBmw'
p66
sS'Handelsnaamwet'
p67
S'\tHnw'
p68
sS'Algemene termijnenwet'
p69
S'\tATW'
p70
sS'Wet ruimtelijke ordening'
p71
S'\tWro'
p72
sS'Gerechtsdeurwaarderswet'
p73
S'\tGdww'
p74
sS'Wet op de parlementaire enquIIte 2008'
p75
S'WodP 2008'
p76
sS'Wet Nationale ombudsman'
p77
S'\tWNO'
p78
sS'Handelsregisterwet 2007'
p79
S'\tHrw 2007'
p80
sS'Rijkswet op het Nederlanderschap'
p81
S'\tRn'
p82
sS'Beneluxverdrag inzake de intellectuele e'
p83
S'\tBv'
p84
sS'Rijksoctrooiwet 1995'
p85
S'\tRoi 1995'
p86
sS'Wetboek van Strafrecht'
p87
S'\tSr'
p88
sS'FinancieIle verhoudingswet'
p89
S'FVW'
p90
sS'Handelsregisterbesluit 2008'
p91
S'\tHrb 2008'
p92
sS'Wet op het notarisambt'
p93
S'\tWna'
p94
sS'Ambtsinstructie voor de politie, de Koni'
p95
S'AvdPK '
p96
sS'Statuut voor het Koninkrijk der Nederlan'
p97
S'\tSKN'
p98
sS'Wet ministerieIle verantwoordelijkheid'
p99
S'\tWmv'
p100
sS'Wet op de economische delicten'
p101
S'\tWed'
p102
sS'Aanvullend Protocol bij het Europees Soc'
p103
S'APEC'
p104
sS'Wet werk en bijstand'
p105
S'\tWwb'
p106
sS'Wegenverkeerswet 1994'
p107
S'\tWvw 1994'
p108
sS'Wet justitieIle en strafvorderlijke gegev'
p109
S'\tWj'
p110
sS'Rijkswet goedkeuring en bekendmaking ver'
p111
S'RWGB'
p112
sS'Beroepswet'
p113
S'\tBw'
p114
sS'Comptabiliteitswet 2001'
p115
S'\tCW'
p116
sS'Wet op het financieel toezicht'
p117
S'\tWet FT'
p118
sS'Wet op de rechtsbijstand'
p119
S'\tWRB'
p120
sS'Wet internationale misdrijven'
p121
S'\tWim'
p122
sS'Ambtenarenwet'
p123
S'\tAw'
p124
sS'Algemene wet bestuursrecht'
p125
S'\tAwb'
p126
sS'Wegenwet'
p127
S'\tWw'
p128
sS'Mededingingswet'
p129
S'\tMDW'
p130
sS'titel'
p131
S'Afkorting\t'
p132
sS'Onteigeningswet'
p133
S'\tOw'
p134
sS'Wet op het consumentenkrediet'
p135
S'\tWet CK'
p136
sS'Wet politiegegevens'
p137
S'\tWp'
p138
sS'Besluit getuigenbescherming'
p139
S'\tBg'
p140
sS'Burgerlijk Wetboek Boek 4'
p141
S'\tBW 4'
p142
sS'Wet openbaarheid van bestuur'
p143
S'\tWOB'
p144
sS'Wet wapens en munitie'
p145
S'\tWwm'
p146
sS'Politiewet 1993'
p147
S'\tPw 1993'
p148
sS'Algemene wet inzake rijksbelastingen'
p149
S'\tAWR'
p150
sS'Wet gelijke behandeling van mannen en vr'
p151
S'\tWGBMV'
p152
sS'Wet op de collectieve arbeidsovereenkoms'
p153
S'\tWet CAO'
p154
sS'Wet op het algemeen verbindend en het on'
p155
S'\tWet AVV'
p156
sS'Besluit alcoholonderzoeken'
p157
S'\tBa'
p158
sS'Wet administratiefrechtelijke handhaving'
p159
S'\tWah'
p160
sS'Burgerlijk Wetboek Boek 7A'
p161
S'\tBW 7A'
p162
sS'Vreemdelingenbesluit 2000'
p163
S'\tVb 2000'
p164
sS'Reglement van orde voor de ministerraad'
p165
S'\tRom'
p166
sS'Wetboek van Koophandel'
p167
S'\tWvK'
p168
sS'Burgerlijk Wetboek Boek 6'
p169
S'\tBW 6'
p170
sS'Burgerlijk Wetboek Boek 7'
p171
S'\tBW 7'
p172
sS'Wet op de bedrijfsorganisatie'
p173
S'\tWet BO'
p174
sS'Burgerlijk Wetboek Boek 5'
p175
S'\tBW 5'
p176
sS'Burgerlijk Wetboek Boek 2'
p177
S'\tBW 2'
p178
sS'Burgerlijk Wetboek Boek 3'
p179
S'\tBW 3'
p180
sS'Burgerlijk Wetboek Boek 1'
p181
S'\tBW 1'
p182
sS'Burgerlijk Wetboek Boek 8'
p183
S'\tBW 8'
p184
s.